; Function Attrs: mustprogress nofree norecurse nounwind memory(read, argmem: readwrite, inaccessiblemem: readwrite) uwtable
define hidden void @_ZN18SafepointMechanism17initialize_headerEP10JavaThread(ptr noundef %0) local_unnamed_addr #3 align 2 {
  %2 = getelementptr inbounds i8, ptr %0, i64 1096
  %3 = load i64, ptr @_ZN18SafepointMechanism25_poll_word_disarmed_valueE, align 8
  store volatile i64 %3, ptr %2, align 8
  %4 = load i64, ptr @_ZN18SafepointMechanism25_poll_page_disarmed_valueE, align 8
  %5 = getelementptr inbounds i8, ptr %0, i64 1104
  store volatile i64 %4, ptr %5, align 8
  ret void
}